; ModuleID = '26/413.c'
source_filename = "26/413.c"
target datalayout = "e-m:e-p270:32:32-p271:32:32-p272:64:64-i64:64-f80:128-n8:16:32:64-S128"
target triple = "x86_64-pc-linux-gnu"

; Function Attrs: noinline nounwind uwtable
define dso_local i32 @main() #0 {
  %1 = alloca i32, align 4
  %2 = alloca [100 x i8], align 16
  %3 = alloca i32, align 4
  %4 = alloca i32, align 4
  %5 = alloca i32, align 4
  %6 = alloca i32, align 4
  store i32 0, i32* %1, align 4
  %7 = getelementptr inbounds [100 x i8], [100 x i8]* %2, i64 0, i64 0
  %8 = call i32 (i8*, ...) bitcast (i32 (...)* @gets to i32 (i8*, ...)*)(i8* %7)
  store i32 0, i32* %6, align 4
  %9 = getelementptr inbounds [100 x i8], [100 x i8]* %2, i64 0, i64 0
  %10 = call i64 @strlen(i8* %9) #3
  %11 = trunc i64 %10 to i32
  store i32 %11, i32* %5, align 4
  store i32 1, i32* %3, align 4
  br label %12

12:                                               ; preds = %60, %0
  %13 = load i32, i32* %3, align 4
  %14 = load i32, i32* %5, align 4
  %15 = icmp slt i32 %13, %14
  br i1 %15, label %16, label %63

16:                                               ; preds = %12
  %17 = load i32, i32* %3, align 4
  %18 = sext i32 %17 to i64
  %19 = getelementptr inbounds [100 x i8], [100 x i8]* %2, i64 0, i64 %18
  %20 = load i8, i8* %19, align 1
  %21 = sext i8 %20 to i32
  %22 = icmp eq i32 %21, 32
  br i1 %22, label %23, label %59

23:                                               ; preds = %16
  %24 = load i32, i32* %3, align 4
  %25 = sub nsw i32 %24, 1
  %26 = sext i32 %25 to i64
  %27 = getelementptr inbounds [100 x i8], [100 x i8]* %2, i64 0, i64 %26
  %28 = load i8, i8* %27, align 1
  %29 = sext i8 %28 to i32
  %30 = icmp eq i32 %29, 32
  br i1 %30, label %31, label %59

31:                                               ; preds = %23
  %32 = load i32, i32* %3, align 4
  store i32 %32, i32* %4, align 4
  br label %33

33:                                               ; preds = %46, %31
  %34 = load i32, i32* %4, align 4
  %35 = load i32, i32* %5, align 4
  %36 = icmp slt i32 %34, %35
  br i1 %36, label %37, label %49

37:                                               ; preds = %33
  %38 = load i32, i32* %4, align 4
  %39 = add nsw i32 %38, 1
  %40 = sext i32 %39 to i64
  %41 = getelementptr inbounds [100 x i8], [100 x i8]* %2, i64 0, i64 %40
  %42 = load i8, i8* %41, align 1
  %43 = load i32, i32* %4, align 4
  %44 = sext i32 %43 to i64
  %45 = getelementptr inbounds [100 x i8], [100 x i8]* %2, i64 0, i64 %44
  store i8 %42, i8* %45, align 1
  br label %46

46:                                               ; preds = %37
  %47 = load i32, i32* %4, align 4
  %48 = add nsw i32 %47, 1
  store i32 %48, i32* %4, align 4
  br label %33

49:                                               ; preds = %33
  %50 = load i32, i32* %6, align 4
  %51 = add nsw i32 %50, 1
  store i32 %51, i32* %6, align 4
  %52 = load i32, i32* %5, align 4
  %53 = load i32, i32* %6, align 4
  %54 = sub nsw i32 %52, %53
  %55 = sext i32 %54 to i64
  %56 = getelementptr inbounds [100 x i8], [100 x i8]* %2, i64 0, i64 %55
  store i8 0, i8* %56, align 1
  %57 = load i32, i32* %3, align 4
  %58 = sub nsw i32 %57, 1
  store i32 %58, i32* %3, align 4
  br label %59

59:                                               ; preds = %49, %23, %16
  br label %60

60:                                               ; preds = %59
  %61 = load i32, i32* %3, align 4
  %62 = add nsw i32 %61, 1
  store i32 %62, i32* %3, align 4
  br label %12

63:                                               ; preds = %12
  %64 = getelementptr inbounds [100 x i8], [100 x i8]* %2, i64 0, i64 0
  %65 = call i32 @puts(i8* %64)
  %66 = call i32 @getchar()
  %67 = call i32 @getchar()
  ret i32 0
}

declare dso_local i32 @gets(...) #1

; Function Attrs: nounwind readonly
declare dso_local i64 @strlen(i8*) #2

declare dso_local i32 @puts(i8*) #1

declare dso_local i32 @getchar() #1


!llvm.module.flags = !{!0}
!llvm.ident = !{!1}

!0 = !{i32 1, !"wchar_size", i32 4}
!1 = !{!"clang version 10.0.0-4ubuntu1 "}
